target datalayout = "e-m:e-p270:32:32-p271:32:32-p272:64:64-i64:64-i128:128-f80:128-n8:16:32:64-S128"
target triple = "x86_64-pc-linux-gnu"

%"class.std::__cxx11::basic_string" = type { %"struct.std::__cxx11::basic_string<char>::_Alloc_hider", i64, %union.anon }
%"struct.std::__cxx11::basic_string<char>::_Alloc_hider" = type { ptr }
%union.anon = type { i64, [8 x i8] }
%"struct.std::_Rb_tree_header" = type { %"struct.std::_Rb_tree_node_base", i64 }
%"struct.std::_Rb_tree_node_base" = type { i32, ptr, ptr, ptr }
%"class.std::map.6" = type { %"class.std::_Rb_tree.7" }
%"class.std::_Rb_tree.7" = type { %"struct.std::_Rb_tree<open_spiel::euchre::Suit, std::pair<const open_spiel::euchre::Suit, open_spiel::euchre::Suit>, std::_Select1st<std::pair<const open_spiel::euchre::Suit, open_spiel::euchre::Suit>>, std::less<open_spiel::euchre::Suit>>::_Rb_tree_impl" }
%"struct.std::_Rb_tree<open_spiel::euchre::Suit, std::pair<const open_spiel::euchre::Suit, open_spiel::euchre::Suit>, std::_Select1st<std::pair<const open_spiel::euchre::Suit, open_spiel::euchre::Suit>>, std::less<open_spiel::euchre::Suit>>::_Rb_tree_impl" = type { [8 x i8], %"struct.std::_Rb_tree_header" }
%"class.std::allocator" = type { i8 }
%"class.std::shared_ptr" = type { %"class.std::__shared_ptr" }
%"class.std::__shared_ptr" = type { ptr, %"class.std::__shared_count" }
%"class.std::__shared_count" = type { ptr }
%"class.absl::debian2::optional" = type { %"class.absl::debian2::optional_internal::optional_data" }
%"class.absl::debian2::optional_internal::optional_data" = type { %"class.absl::debian2::optional_internal::optional_data_base" }
%"class.absl::debian2::optional_internal::optional_data_base" = type { %"class.absl::debian2::optional_internal::optional_data_dtor_base" }
%"class.absl::debian2::optional_internal::optional_data_dtor_base" = type { i8, %union.anon.20 }
%union.anon.20 = type { i8 }
%"class.open_spiel::euchre::EuchreState" = type { %"class.open_spiel::State.base", i8, i8, i32, i32, i32, i32, i32, i32, i32, i32, i32, i32, i32, i32, %"class.absl::debian2::optional", i32, %"class.std::vector.24", i32, i32, i32, i32, %"struct.std::array", %"struct.std::array.33", %"struct.std::array.33", %"class.std::vector.39" }
%"class.open_spiel::State.base" = type <{ ptr, %"class.std::shared_ptr", i32, i32, %"class.std::vector", i32 }>
%"class.std::vector" = type { %"struct.std::_Vector_base" }
%"struct.std::_Vector_base" = type { %"struct.std::_Vector_base<open_spiel::State::PlayerAction, std::allocator<open_spiel::State::PlayerAction>>::_Vector_impl" }
%"struct.std::_Vector_base<open_spiel::State::PlayerAction, std::allocator<open_spiel::State::PlayerAction>>::_Vector_impl" = type { %"struct.std::_Vector_base<open_spiel::State::PlayerAction, std::allocator<open_spiel::State::PlayerAction>>::_Vector_impl_data" }
%"struct.std::_Vector_base<open_spiel::State::PlayerAction, std::allocator<open_spiel::State::PlayerAction>>::_Vector_impl_data" = type { ptr, ptr, ptr }
%"class.std::vector.24" = type { %"struct.std::_Bvector_base" }
%"struct.std::_Bvector_base" = type { %"struct.std::_Bvector_base<std::allocator<bool>>::_Bvector_impl" }
%"struct.std::_Bvector_base<std::allocator<bool>>::_Bvector_impl" = type { %"struct.std::_Bvector_base<std::allocator<bool>>::_Bvector_impl_data" }
%"struct.std::_Bvector_base<std::allocator<bool>>::_Bvector_impl_data" = type { %"struct.std::_Bit_iterator", %"struct.std::_Bit_iterator", ptr }
%"struct.std::_Bit_iterator" = type { %"struct.std::_Bit_iterator_base.base", [4 x i8] }
%"struct.std::_Bit_iterator_base.base" = type <{ ptr, i32 }>
%"struct.std::array" = type { [5 x %"class.open_spiel::euchre::Trick"] }
%"class.open_spiel::euchre::Trick" = type { i32, i32, i32, i8, i32, i32, %"class.std::vector.28" }
%"class.std::vector.28" = type { %"struct.std::_Vector_base.29" }
%"struct.std::_Vector_base.29" = type { %"struct.std::_Vector_base<int, std::allocator<int>>::_Vector_impl" }
%"struct.std::_Vector_base<int, std::allocator<int>>::_Vector_impl" = type { %"struct.std::_Vector_base<int, std::allocator<int>>::_Vector_impl_data" }
%"struct.std::_Vector_base<int, std::allocator<int>>::_Vector_impl_data" = type { ptr, ptr, ptr }
%"struct.std::array.33" = type { [24 x %"class.absl::debian2::optional.34"] }
%"class.absl::debian2::optional.34" = type { %"class.absl::debian2::optional_internal::optional_data.35" }
%"class.absl::debian2::optional_internal::optional_data.35" = type { %"class.absl::debian2::optional_internal::optional_data_base.36" }
%"class.absl::debian2::optional_internal::optional_data_base.36" = type { %"class.absl::debian2::optional_internal::optional_data_dtor_base.37" }
%"class.absl::debian2::optional_internal::optional_data_dtor_base.37" = type { i8, %union.anon.38 }
%union.anon.38 = type { i32 }
%"class.std::vector.39" = type { %"struct.std::_Vector_base.40" }
%"struct.std::_Vector_base.40" = type { %"struct.std::_Vector_base<double, std::allocator<double>>::_Vector_impl" }
%"struct.std::_Vector_base<double, std::allocator<double>>::_Vector_impl" = type { %"struct.std::_Vector_base<double, std::allocator<double>>::_Vector_impl_data" }
%"struct.std::_Vector_base<double, std::allocator<double>>::_Vector_impl_data" = type { ptr, ptr, ptr }

@_ZN10open_spiel6euchre12_GLOBAL__N_115same_color_suitE = internal global %"class.std::map.6" zeroinitializer, align 8
@.str.69 = private unnamed_addr constant [24 x i8] c"Invalid bidding action.\00", align 1

; Function Attrs: mustprogress nounwind uwtable
define linkonce_odr void @_ZN4absl7debian217optional_internal23optional_data_dtor_baseIiLb1EEC2IJRiEEENS0_10in_place_tEDpOT_(ptr noundef nonnull align 4 dereferenceable(8) %0, ptr noundef nonnull align 4 dereferenceable(4) %1) unnamed_addr #5 comdat align 2 {
  %3 = alloca ptr, align 8
  %4 = alloca ptr, align 8
  store ptr %0, ptr %3, align 8
  store ptr %1, ptr %4, align 8
  %5 = load ptr, ptr %3, align 8
  %6 = getelementptr inbounds nuw %"class.absl::debian2::optional_internal::optional_data_dtor_base.37", ptr %5, i32 0, i32 0
  store i8 1, ptr %6, align 4
  %7 = getelementptr inbounds nuw %"class.absl::debian2::optional_internal::optional_data_dtor_base.37", ptr %5, i32 0, i32 1
  %8 = load ptr, ptr %4, align 8
  %9 = call noundef nonnull align 4 dereferenceable(4) ptr @_ZN4absl7debian27forwardIRiEEOT_RNSt16remove_referenceIS3_E4typeE(ptr noundef nonnull align 4 dereferenceable(4) %8) #3
  %10 = load i32, ptr %9, align 4
  store i32 %10, ptr %7, align 4
  ret void
}

; Function Attrs: mustprogress uwtable
define linkonce_odr void @_ZN4absl7debian217optional_internal18optional_data_baseIiECI2NS1_23optional_data_dtor_baseIiLb1EEEIJRiEEENS0_10in_place_tEDpOT_(ptr noundef nonnull align 4 dereferenceable(8) %0, ptr noundef nonnull align 4 dereferenceable(4) %1) unnamed_addr #4 comdat align 2 {
  %3 = alloca ptr, align 8
  %4 = alloca ptr, align 8
  store ptr %0, ptr %3, align 8
  store ptr %1, ptr %4, align 8
  %5 = load ptr, ptr %3, align 8
  %6 = load ptr, ptr %4, align 8
  call void @_ZN4absl7debian217optional_internal23optional_data_dtor_baseIiLb1EEC2IJRiEEENS0_10in_place_tEDpOT_(ptr noundef nonnull align 4 dereferenceable(8) %5, ptr noundef nonnull align 4 dereferenceable(4) %6)
  ret void
}

; Function Attrs: mustprogress nounwind uwtable
define linkonce_odr noundef nonnull align 4 dereferenceable(8) ptr @_ZNSt14__array_traitsIN4absl7debian28optionalIiEELm24EE6_S_refERA24_KS3_m(ptr noundef nonnull align 4 dereferenceable(192) %0, i64 noundef %1) #5 comdat align 2 {
  %3 = alloca ptr, align 8
  %4 = alloca i64, align 8
  store ptr %0, ptr %3, align 8
  store i64 %1, ptr %4, align 8
  %5 = load ptr, ptr %3, align 8
  %6 = load i64, ptr %4, align 8
  %7 = getelementptr inbounds [24 x %"class.absl::debian2::optional.34"], ptr %5, i64 0, i64 %6
  ret ptr %7
}

; Function Attrs: mustprogress uwtable
define linkonce_odr void @_ZN4absl7debian217optional_internal13optional_dataIiLb1EECI2NS1_23optional_data_dtor_baseIiLb1EEEIJRiEEENS0_10in_place_tEDpOT_(ptr noundef nonnull align 4 dereferenceable(8) %0, ptr noundef nonnull align 4 dereferenceable(4) %1) unnamed_addr #4 comdat align 2 {
  %3 = alloca ptr, align 8
  %4 = alloca ptr, align 8
  store ptr %0, ptr %3, align 8
  store ptr %1, ptr %4, align 8
  %5 = load ptr, ptr %3, align 8
  %6 = load ptr, ptr %4, align 8
  call void @_ZN4absl7debian217optional_internal18optional_data_baseIiECI2NS1_23optional_data_dtor_baseIiLb1EEEIJRiEEENS0_10in_place_tEDpOT_(ptr noundef nonnull align 4 dereferenceable(8) %5, ptr noundef nonnull align 4 dereferenceable(4) %6)
  ret void
}

; Function Attrs: mustprogress nounwind uwtable
define linkonce_odr noundef nonnull align 4 dereferenceable(4) ptr @_ZN4absl7debian27forwardIRiEEOT_RNSt16remove_referenceIS3_E4typeE(ptr noundef nonnull align 4 dereferenceable(4) %0) #5 comdat {
  %2 = alloca ptr, align 8
  store ptr %0, ptr %2, align 8
  %3 = load ptr, ptr %2, align 8
  ret ptr %3
}

; Function Attrs: mustprogress nounwind uwtable
define linkonce_odr noundef nonnull align 4 dereferenceable(8) ptr @_ZNSt5arrayIN4absl7debian28optionalIiEELm24EEixEm(ptr noundef nonnull align 4 dereferenceable(192) %0, i64 noundef %1) #5 comdat align 2 {
  %3 = alloca ptr, align 8
  %4 = alloca i64, align 8
  store ptr %0, ptr %3, align 8
  store i64 %1, ptr %4, align 8
  %5 = load ptr, ptr %3, align 8
  %6 = getelementptr inbounds nuw %"struct.std::array.33", ptr %5, i32 0, i32 0
  %7 = load i64, ptr %4, align 8
  %8 = call noundef nonnull align 4 dereferenceable(8) ptr @_ZNSt14__array_traitsIN4absl7debian28optionalIiEELm24EE6_S_refERA24_KS3_m(ptr noundef nonnull align 4 dereferenceable(192) %6, i64 noundef %7) #3
  ret ptr %8
}

; Function Attrs: mustprogress uwtable
define linkonce_odr void @_ZN4absl7debian28optionalIiEC2IRiTnNSt9enable_ifIXsr4absl11conjunctionINS0_8negationISt7is_sameINS0_10in_place_tENSt5decayIT_E4typeEEEENS6_IS7_IS2_SC_EEESt14is_convertibleIOSA_iESt16is_constructibleIiJSI_EEEE5valueEbE4typeELb0EEESI_(ptr noundef nonnull align 4 dereferenceable(8) %0, ptr noundef nonnull align 4 dereferenceable(4) %1) unnamed_addr #4 comdat align 2 {
  %3 = alloca ptr, align 8
  %4 = alloca ptr, align 8
  store ptr %0, ptr %3, align 8
  store ptr %1, ptr %4, align 8
  %5 = load ptr, ptr %3, align 8
  %6 = load ptr, ptr %4, align 8
  %7 = call noundef nonnull align 4 dereferenceable(4) ptr @_ZN4absl7debian27forwardIRiEEOT_RNSt16remove_referenceIS3_E4typeE(ptr noundef nonnull align 4 dereferenceable(4) %6) #3
  call void @_ZN4absl7debian217optional_internal13optional_dataIiLb1EECI2NS1_23optional_data_dtor_baseIiLb1EEEIJRiEEENS0_10in_place_tEDpOT_(ptr noundef nonnull align 4 dereferenceable(8) %5, ptr noundef nonnull align 4 dereferenceable(4) %7)
  ret void
}

; Function Attrs: mustprogress nounwind uwtable
define linkonce_odr noundef i32 @_ZN10open_spiel6euchre4CardENS0_4SuitEi(i32 noundef %0, i32 noundef %1) #5 comdat {
  %3 = alloca i32, align 4
  %4 = alloca i32, align 4
  store i32 %0, ptr %3, align 4
  store i32 %1, ptr %4, align 4
  %5 = load i32, ptr %4, align 4
  %6 = mul nsw i32 %5, 4
  %7 = load i32, ptr %3, align 4
  %8 = add nsw i32 %6, %7
  ret i32 %8
}

; Function Attrs: mustprogress uwtable
define void @_ZN10open_spiel6euchre11EuchreState18ApplyBiddingActionEi(ptr noundef nonnull align 8 dereferenceable(824) %0, i32 noundef %1) #4 align 2 personality ptr @__gxx_personality_v0 {
  %3 = alloca ptr, align 8
  %4 = alloca i32, align 4
  %5 = alloca %"class.std::__cxx11::basic_string", align 8
  %6 = alloca %"class.std::allocator", align 1
  %7 = alloca ptr, align 8
  %8 = alloca i32, align 4
  %9 = alloca %"class.absl::debian2::optional.34", align 4
  store ptr %0, ptr %3, align 8
  store i32 %1, ptr %4, align 4
  %10 = load ptr, ptr %3, align 8
  %11 = load i32, ptr %4, align 4
  %12 = icmp eq i32 %11, 24
  br i1 %12, label %13, label %30

13:                                               ; preds = %2
  %14 = getelementptr inbounds nuw %"class.open_spiel::euchre::EuchreState", ptr %10, i32 0, i32 5
  %15 = load i32, ptr %14, align 8
  %16 = add nsw i32 %15, 1
  store i32 %16, ptr %14, align 8
  %17 = getelementptr inbounds nuw %"class.open_spiel::euchre::EuchreState", ptr %10, i32 0, i32 5
  %18 = load i32, ptr %17, align 8
  %19 = icmp eq i32 %18, 8
  br i1 %19, label %20, label %23

20:                                               ; preds = %13
  %21 = getelementptr inbounds nuw %"class.open_spiel::euchre::EuchreState", ptr %10, i32 0, i32 21
  store i32 6, ptr %21, align 4
  %22 = getelementptr inbounds nuw %"class.open_spiel::euchre::EuchreState", ptr %10, i32 0, i32 19
  store i32 -4, ptr %22, align 4
  br label %29

23:                                               ; preds = %13
  %24 = getelementptr inbounds nuw %"class.open_spiel::euchre::EuchreState", ptr %10, i32 0, i32 19
  %25 = load i32, ptr %24, align 4
  %26 = add nsw i32 %25, 1
  %27 = srem i32 %26, 4
  %28 = getelementptr inbounds nuw %"class.open_spiel::euchre::EuchreState", ptr %10, i32 0, i32 19
  store i32 %27, ptr %28, align 4
  br label %29

29:                                               ; preds = %23, %20
  br label %97

30:                                               ; preds = %2
  %31 = getelementptr inbounds nuw %"class.open_spiel::euchre::EuchreState", ptr %10, i32 0, i32 19
  %32 = load i32, ptr %31, align 4
  %33 = getelementptr inbounds nuw %"class.open_spiel::euchre::EuchreState", ptr %10, i32 0, i32 11
  store i32 %32, ptr %33, align 8
  %34 = getelementptr inbounds nuw %"class.open_spiel::euchre::EuchreState", ptr %10, i32 0, i32 11
  %35 = load i32, ptr %34, align 8
  %36 = add nsw i32 %35, 1
  %37 = srem i32 %36, 4
  %38 = getelementptr inbounds nuw %"class.open_spiel::euchre::EuchreState", ptr %10, i32 0, i32 13
  store i32 %37, ptr %38, align 8
  %39 = getelementptr inbounds nuw %"class.open_spiel::euchre::EuchreState", ptr %10, i32 0, i32 11
  %40 = load i32, ptr %39, align 8
  %41 = add nsw i32 %40, 2
  %42 = srem i32 %41, 4
  %43 = getelementptr inbounds nuw %"class.open_spiel::euchre::EuchreState", ptr %10, i32 0, i32 12
  store i32 %42, ptr %43, align 4
  %44 = getelementptr inbounds nuw %"class.open_spiel::euchre::EuchreState", ptr %10, i32 0, i32 11
  %45 = load i32, ptr %44, align 8
  %46 = add nsw i32 %45, 3
  %47 = srem i32 %46, 4
  %48 = getelementptr inbounds nuw %"class.open_spiel::euchre::EuchreState", ptr %10, i32 0, i32 14
  store i32 %47, ptr %48, align 4
  %49 = load i32, ptr %4, align 4
  switch i32 %49, label %58 [
    i32 25, label %50
    i32 26, label %52
    i32 27, label %54
    i32 28, label %56
  ]

50:                                               ; preds = %30
  %51 = getelementptr inbounds nuw %"class.open_spiel::euchre::EuchreState", ptr %10, i32 0, i32 8
  store i32 0, ptr %51, align 4
  br label %70

52:                                               ; preds = %30
  %53 = getelementptr inbounds nuw %"class.open_spiel::euchre::EuchreState", ptr %10, i32 0, i32 8
  store i32 1, ptr %53, align 4
  br label %70

54:                                               ; preds = %30
  %55 = getelementptr inbounds nuw %"class.open_spiel::euchre::EuchreState", ptr %10, i32 0, i32 8
  store i32 2, ptr %55, align 4
  br label %70

56:                                               ; preds = %30
  %57 = getelementptr inbounds nuw %"class.open_spiel::euchre::EuchreState", ptr %10, i32 0, i32 8
  store i32 3, ptr %57, align 4
  br label %70

58:                                               ; preds = %30
  call void @_ZNSaIcEC1Ev(ptr noundef nonnull align 1 dereferenceable(1) %6) #3
  invoke void @_ZNSt7__cxx1112basic_stringIcSt11char_traitsIcESaIcEEC2IS3_EEPKcRKS3_(ptr noundef nonnull align 8 dereferenceable(32) %5, ptr noundef @.str.69, ptr noundef nonnull align 1 dereferenceable(1) %6)
          to label %59 unwind label %61

59:                                               ; preds = %58
  invoke void @_ZN10open_spiel15SpielFatalErrorERKNSt7__cxx1112basic_stringIcSt11char_traitsIcESaIcEEE(ptr noundef nonnull align 8 dereferenceable(32) %5) #16
          to label %60 unwind label %65

60:                                               ; preds = %59
  unreachable

61:                                               ; preds = %58
  %62 = landingpad { ptr, i32 }
          cleanup
  %63 = extractvalue { ptr, i32 } %62, 0
  store ptr %63, ptr %7, align 8
  %64 = extractvalue { ptr, i32 } %62, 1
  store i32 %64, ptr %8, align 4
  br label %69

65:                                               ; preds = %59
  %66 = landingpad { ptr, i32 }
          cleanup
  %67 = extractvalue { ptr, i32 } %66, 0
  store ptr %67, ptr %7, align 8
  %68 = extractvalue { ptr, i32 } %66, 1
  store i32 %68, ptr %8, align 4
  call void @_ZNSt7__cxx1112basic_stringIcSt11char_traitsIcESaIcEED1Ev(ptr noundef nonnull align 8 dereferenceable(32) %5) #3
  br label %69

69:                                               ; preds = %65, %61
  call void @_ZNSaIcED1Ev(ptr noundef nonnull align 1 dereferenceable(1) %6) #3
  br label %98

70:                                               ; preds = %56, %54, %52, %50
  %71 = getelementptr inbounds nuw %"class.open_spiel::euchre::EuchreState", ptr %10, i32 0, i32 8
  %72 = load i32, ptr %71, align 4
  %73 = call noundef i32 @_ZN10open_spiel6euchre4CardENS0_4SuitEi(i32 noundef %72, i32 noundef 2)
  %74 = getelementptr inbounds nuw %"class.open_spiel::euchre::EuchreState", ptr %10, i32 0, i32 10
  store i32 %73, ptr %74, align 4
  %75 = getelementptr inbounds nuw %"class.open_spiel::euchre::EuchreState", ptr %10, i32 0, i32 8
  %76 = call noundef nonnull align 4 dereferenceable(4) ptr @_ZNSt3mapIN10open_spiel6euchre4SuitES2_St4lessIS2_ESaISt4pairIKS2_S2_EEEixERS6_(ptr noundef nonnull align 8 dereferenceable(48) @_ZN10open_spiel6euchre12_GLOBAL__N_115same_color_suitE, ptr noundef nonnull align 4 dereferenceable(4) %75)
  %77 = load i32, ptr %76, align 4
  %78 = call noundef i32 @_ZN10open_spiel6euchre4CardENS0_4SuitEi(i32 noundef %77, i32 noundef 2)
  %79 = getelementptr inbounds nuw %"class.open_spiel::euchre::EuchreState", ptr %10, i32 0, i32 9
  store i32 %78, ptr %79, align 8
  %80 = getelementptr inbounds nuw %"class.open_spiel::euchre::EuchreState", ptr %10, i32 0, i32 5
  %81 = load i32, ptr %80, align 8
  %82 = icmp slt i32 %81, 4
  br i1 %82, label %83, label %94

83:                                               ; preds = %70
  %84 = getelementptr inbounds nuw %"class.open_spiel::euchre::EuchreState", ptr %10, i32 0, i32 20
  call void @_ZN4absl7debian28optionalIiEC2IRiTnNSt9enable_ifIXsr4absl11conjunctionINS0_8negationISt7is_sameINS0_10in_place_tENSt5decayIT_E4typeEEEENS6_IS7_IS2_SC_EEESt14is_convertibleIOSA_iESt16is_constructibleIiJSI_EEEE5valueEbE4typeELb0EEESI_(ptr noundef nonnull align 4 dereferenceable(8) %9, ptr noundef nonnull align 4 dereferenceable(4) %84)
  %85 = getelementptr inbounds nuw %"class.open_spiel::euchre::EuchreState", ptr %10, i32 0, i32 23
  %86 = getelementptr inbounds nuw %"class.open_spiel::euchre::EuchreState", ptr %10, i32 0, i32 6
  %87 = load i32, ptr %86, align 4
  %88 = sext i32 %87 to i64
  %89 = call noundef nonnull align 4 dereferenceable(8) ptr @_ZNSt5arrayIN4absl7debian28optionalIiEELm24EEixEm(ptr noundef nonnull align 4 dereferenceable(192) %85, i64 noundef %88) #3
  call void @llvm.memcpy.p0.p0.i64(ptr align 4 %89, ptr align 4 %9, i64 8, i1 false)
  %90 = getelementptr inbounds nuw %"class.open_spiel::euchre::EuchreState", ptr %10, i32 0, i32 21
  store i32 3, ptr %90, align 4
  %91 = getelementptr inbounds nuw %"class.open_spiel::euchre::EuchreState", ptr %10, i32 0, i32 20
  %92 = load i32, ptr %91, align 8
  %93 = getelementptr inbounds nuw %"class.open_spiel::euchre::EuchreState", ptr %10, i32 0, i32 19
  store i32 %92, ptr %93, align 4
  br label %96

94:                                               ; preds = %70
  %95 = getelementptr inbounds nuw %"class.open_spiel::euchre::EuchreState", ptr %10, i32 0, i32 21
  store i32 4, ptr %95, align 4
  br label %96

96:                                               ; preds = %94, %83
  br label %97

97:                                               ; preds = %96, %29
  ret void

98:                                               ; preds = %69
  %99 = load ptr, ptr %7, align 8
  %100 = load i32, ptr %8, align 4
  %101 = insertvalue { ptr, i32 } poison, ptr %99, 0
  %102 = insertvalue { ptr, i32 } %101, i32 %100, 1
  resume { ptr, i32 } %102
}