; Function Attrs: mustprogress uwtable
define void @_ZN10open_spiel6euchre11EuchreState18ApplyBiddingActionEi(ptr noundef nonnull align 8 dereferenceable(824) %0, i32 noundef %1) local_unnamed_addr #3 align 2 personality ptr @__gxx_personality_v0 {
  %3 = alloca %"class.std::__cxx11::basic_string", align 8
  %4 = alloca %"class.std::allocator", align 1
  %5 = icmp eq i32 %1, 24
  br i1 %5, label %6, label %19

6:                                                ; preds = %2
  %7 = getelementptr inbounds nuw i8, ptr %0, i64 72
  %8 = load i32, ptr %7, align 8
  %9 = add nsw i32 %8, 1
  store i32 %9, ptr %7, align 8
  %10 = icmp eq i32 %9, 8
  br i1 %10, label %11, label %14

11:                                               ; preds = %6
  %12 = getelementptr inbounds nuw i8, ptr %0, i64 172
  store i32 6, ptr %12, align 4
  %13 = getelementptr inbounds nuw i8, ptr %0, i64 164
  store i32 -4, ptr %13, align 4
  br label %63

14:                                               ; preds = %6
  %15 = getelementptr inbounds nuw i8, ptr %0, i64 164
  %16 = load i32, ptr %15, align 4
  %17 = add nsw i32 %16, 1
  %18 = srem i32 %17, 4
  store i32 %18, ptr %15, align 4
  br label %63

19:                                               ; preds = %2
  %20 = getelementptr inbounds nuw i8, ptr %0, i64 164
  %21 = load i32, ptr %20, align 4
  %22 = getelementptr inbounds nuw i8, ptr %0, i64 96
  store i32 %21, ptr %22, align 8
  %23 = add nsw i32 %21, 1
  %24 = srem i32 %23, 4
  %25 = getelementptr inbounds nuw i8, ptr %0, i64 104
  store i32 %24, ptr %25, align 8
  %26 = add nsw i32 %21, 2
  %27 = srem i32 %26, 4
  %28 = getelementptr inbounds nuw i8, ptr %0, i64 100
  store i32 %27, ptr %28, align 4
  %29 = add nsw i32 %21, 3
  %30 = srem i32 %29, 4
  %31 = getelementptr inbounds nuw i8, ptr %0, i64 108
  store i32 %30, ptr %31, align 4
  %switch.tableidx = add i32 %1, -25
  %32 = icmp ult i32 %switch.tableidx, 4
  br i1 %32, label %switch.lookup, label %33

33:                                               ; preds = %19
  call void @_ZNSaIcEC1Ev(ptr noundef nonnull align 1 dereferenceable(1) %4) #25
  invoke void @_ZNSt7__cxx1112basic_stringIcSt11char_traitsIcESaIcEEC2IS3_EEPKcRKS3_(ptr noundef nonnull align 8 dereferenceable(32) %3, ptr noundef nonnull @.str.69, ptr noundef nonnull align 1 dereferenceable(1) %4)
          to label %34 unwind label %36

34:                                               ; preds = %33
  invoke void @_ZN10open_spiel15SpielFatalErrorERKNSt7__cxx1112basic_stringIcSt11char_traitsIcESaIcEEE(ptr noundef nonnull align 8 dereferenceable(32) %3) #24
          to label %35 unwind label %38

35:                                               ; preds = %34
  unreachable

36:                                               ; preds = %33
  %37 = landingpad { ptr, i32 }
          cleanup
  br label %40

38:                                               ; preds = %34
  %39 = landingpad { ptr, i32 }
          cleanup
  call void @_ZNSt7__cxx1112basic_stringIcSt11char_traitsIcESaIcEED1Ev(ptr noundef nonnull align 8 dereferenceable(32) %3) #25
  br label %40

40:                                               ; preds = %38, %36
  %.pn = phi { ptr, i32 } [ %39, %38 ], [ %37, %36 ]
  call void @_ZNSaIcED1Ev(ptr noundef nonnull align 1 dereferenceable(1) %4) #25
  resume { ptr, i32 } %.pn

switch.lookup:                                    ; preds = %19
  %switch.offset = add nsw i32 %1, -17
  %41 = getelementptr inbounds nuw i8, ptr %0, i64 84
  store i32 %switch.tableidx, ptr %41, align 4
  %42 = getelementptr inbounds nuw i8, ptr %0, i64 84
  %43 = getelementptr inbounds nuw i8, ptr %0, i64 92
  store i32 %switch.offset, ptr %43, align 4
  %44 = tail call noundef nonnull align 4 dereferenceable(4) ptr @_ZNSt3mapIN10open_spiel6euchre4SuitES2_St4lessIS2_ESaISt4pairIKS2_S2_EEEixERS6_(ptr noundef nonnull align 8 dereferenceable(48) @_ZN10open_spiel6euchre12_GLOBAL__N_115same_color_suitE, ptr noundef nonnull align 4 dereferenceable(4) %42)
  %45 = load i32, ptr %44, align 4
  %46 = add nsw i32 %45, 8
  %47 = getelementptr inbounds nuw i8, ptr %0, i64 88
  store i32 %46, ptr %47, align 8
  %48 = getelementptr inbounds nuw i8, ptr %0, i64 72
  %49 = load i32, ptr %48, align 8
  %50 = icmp slt i32 %49, 4
  br i1 %50, label %51, label %61

51:                                               ; preds = %switch.lookup
  %52 = getelementptr inbounds nuw i8, ptr %0, i64 168
  %53 = load i32, ptr %52, align 8
  %54 = getelementptr inbounds nuw i8, ptr %0, i64 416
  %55 = getelementptr inbounds nuw i8, ptr %0, i64 76
  %56 = load i32, ptr %55, align 4
  %57 = sext i32 %56 to i64
  %58 = getelementptr inbounds [24 x %"class.absl::debian2::optional.34"], ptr %54, i64 0, i64 %57
  %.sroa.27.0.insert.ext = zext i32 %53 to i64
  %.sroa.27.0.insert.shift = shl nuw i64 %.sroa.27.0.insert.ext, 32
  %.sroa.0.0.insert.insert = or disjoint i64 %.sroa.27.0.insert.shift, 1
  store i64 %.sroa.0.0.insert.insert, ptr %58, align 8
  %59 = getelementptr inbounds nuw i8, ptr %0, i64 172
  store i32 3, ptr %59, align 4
  %60 = load i32, ptr %52, align 8
  store i32 %60, ptr %20, align 4
  br label %63

61:                                               ; preds = %switch.lookup
  %62 = getelementptr inbounds nuw i8, ptr %0, i64 172
  store i32 4, ptr %62, align 4
  br label %63

63:                                               ; preds = %51, %61, %11, %14
  ret void
}